; Function Attrs: mustprogress uwtable
define hidden void @_ZN3smt17theory_array_base18instantiate_lambdaEP3app(ptr noalias sret(%class.obj_ref) align 8 %agg.result, ptr nocapture noundef nonnull readonly align 8 dereferenceable(249) %this, ptr noundef %e) local_unnamed_addr #3 align 2 personality ptr @__gxx_personality_v0 {
_ZN7obj_refI4expr11ast_managerEC2EPS0_RS1_.exit:
  %sub = alloca %class.var_subst, align 8
  %ref.tmp = alloca %class.obj_ref, align 8
  %m = getelementptr inbounds i8, ptr %this, i64 24
  %0 = load ptr, ptr %m, align 8
  %m_decl.i = getelementptr inbounds i8, ptr %e, i64 16
  %1 = load ptr, ptr %m_decl.i, align 8
  %call2 = tail call noundef ptr @_ZN11ast_manager13is_lambda_defEP9func_decl(ptr noundef nonnull align 8 dereferenceable(976) %0, ptr noundef %1)
  %2 = load ptr, ptr %m, align 8
  store ptr %e, ptr %agg.result, align 8
  %m_manager.i = getelementptr inbounds i8, ptr %agg.result, i64 8
  store ptr %2, ptr %m_manager.i, align 8
  %m_ref_count.i.i.i.i = getelementptr inbounds i8, ptr %e, i64 8
  %3 = load i32, ptr %m_ref_count.i.i.i.i, align 4
  %inc.i.i.i.i = add i32 %3, 1
  store i32 %inc.i.i.i.i, ptr %m_ref_count.i.i.i.i, align 4
  %tobool.not = icmp eq ptr %call2, null
  br i1 %tobool.not, label %nrvo.skipdtor, label %if.then

if.then:                                          ; preds = %_ZN7obj_refI4expr11ast_managerEC2EPS0_RS1_.exit
  %4 = load ptr, ptr %m, align 8
  store ptr getelementptr inbounds ({ [4 x ptr] }, ptr @_ZTV12beta_reducer, i64 0, i32 0, i64 2), ptr %sub, align 8
  %m_cfg.i.i = getelementptr inbounds i8, ptr %sub, i64 536
  invoke void @_ZN12rewriter_tplI16beta_reducer_cfgEC2ER11ast_managerbRS0_(ptr noundef nonnull align 8 dereferenceable(536) %sub, ptr noundef nonnull align 8 dereferenceable(976) %4, i1 noundef zeroext false, ptr noundef nonnull align 1 dereferenceable(1) %m_cfg.i.i)
          to label %invoke.cont unwind label %lpad

invoke.cont:                                      ; preds = %if.then
  store ptr getelementptr inbounds ({ [4 x ptr] }, ptr @_ZTV12beta_reducer, i64 0, i32 0, i64 2), ptr %sub, align 8
  %m_std_order.i = getelementptr inbounds i8, ptr %sub, i64 544
  store i8 0, ptr %m_std_order.i, align 8
  %m_num_args.i = getelementptr inbounds i8, ptr %e, i64 24
  %5 = load i32, ptr %m_num_args.i, align 8
  %m_args.i = getelementptr inbounds i8, ptr %e, i64 32
  invoke void @_ZN9var_substclEP4exprjPKS1_(ptr nonnull sret(%class.obj_ref) align 8 %ref.tmp, ptr noundef nonnull align 8 dereferenceable(545) %sub, ptr noundef nonnull %call2, i32 noundef %5, ptr noundef nonnull %m_args.i)
          to label %if.then.i.i.i.i unwind label %lpad5

if.then.i.i.i.i:                                  ; preds = %invoke.cont
  %6 = load ptr, ptr %ref.tmp, align 8
  store ptr %6, ptr %agg.result, align 8
  store ptr %e, ptr %ref.tmp, align 8
  %m_manager.i.i.i = getelementptr inbounds i8, ptr %ref.tmp, i64 8
  %7 = load ptr, ptr %m_manager.i.i.i, align 8
  %8 = load i32, ptr %m_ref_count.i.i.i.i, align 4
  %dec.i.i.i.i.i = add i32 %8, -1
  store i32 %dec.i.i.i.i.i, ptr %m_ref_count.i.i.i.i, align 4
  %cmp.i.i.i.i = icmp eq i32 %dec.i.i.i.i.i, 0
  br i1 %cmp.i.i.i.i, label %if.then2.i.i.i.i, label %_ZN7obj_refI4expr11ast_managerED2Ev.exit

if.then2.i.i.i.i:                                 ; preds = %if.then.i.i.i.i
  invoke void @_ZN11ast_manager11delete_nodeEP3ast(ptr noundef nonnull align 8 dereferenceable(976) %7, ptr noundef nonnull %e)
          to label %_ZN7obj_refI4expr11ast_managerED2Ev.exit unwind label %terminate.lpad.i

terminate.lpad.i:                                 ; preds = %if.then2.i.i.i.i
  %9 = landingpad { ptr, i32 }
          catch ptr null
  %10 = extractvalue { ptr, i32 } %9, 0
  call void @__clang_call_terminate(ptr %10) #20
  unreachable

_ZN7obj_refI4expr11ast_managerED2Ev.exit:         ; preds = %if.then2.i.i.i.i, %if.then.i.i.i.i
  store ptr null, ptr %ref.tmp, align 8
  call void @_ZN12rewriter_tplI16beta_reducer_cfgED2Ev(ptr noundef nonnull align 8 dereferenceable(536) %sub) #19
  br label %nrvo.skipdtor

lpad:                                             ; preds = %if.then
  %11 = landingpad { ptr, i32 }
          cleanup
  br label %ehcleanup

lpad5:                                            ; preds = %invoke.cont
  %12 = landingpad { ptr, i32 }
          cleanup
  call void @_ZN12rewriter_tplI16beta_reducer_cfgED2Ev(ptr noundef nonnull align 8 dereferenceable(536) %sub) #19
  br label %ehcleanup

nrvo.skipdtor:                                    ; preds = %_ZN7obj_refI4expr11ast_managerEC2EPS0_RS1_.exit, %_ZN7obj_refI4expr11ast_managerED2Ev.exit
  ret void

ehcleanup:                                        ; preds = %lpad5, %lpad
  %.pn = phi { ptr, i32 } [ %12, %lpad5 ], [ %11, %lpad ]
  call void @_ZN7obj_refI4expr11ast_managerED2Ev(ptr noundef nonnull align 8 dereferenceable(16) %agg.result) #19
  resume { ptr, i32 } %.pn
}